ccopy_reg
_reconstructor
p0
(cMethods
NaiveBayes
p1
c__builtin__
object
p2
Ntp3
Rp4
(dp5
S'class_priors'
p6
(dp7
S'republican'
p8
F0.3850574712643678
sS'democrat'
p9
F0.6149425287356322
ssS'summaries'
p10
(dp11
g8
(dp12
I0
(F0.35074626865671643
F0.5753001907754463
tp13
sI1
(F1.0149253731343284
F0.8719560094265503
tp14
sI2
(F0.23134328358208955
F0.38968690382673155
tp15
sI3
(F1.9552238805970148
F0.0731679946133992
tp16
sI4
(F1.9104477611940298
F0.1573336325889354
tp17
sI5
(F1.7462686567164178
F0.43137694983728064
tp18
sI6
(F0.5074626865671642
F0.7330265963416008
tp19
sI7
(F0.29850746268656714
F0.45157670295140706
tp20
sI8
(F0.208955223880597
F0.3620244641454379
tp21
sI9
(F1.1343283582089552
F0.9743014252048028
tp22
sI10
(F0.2462686567164179
F0.39754236337111465
tp23
sI11
(F1.7164179104477613
F0.4152171473459773
tp24
sI12
(F1.6492537313432836
F0.5301874088205589
tp25
sI13
(F1.9402985074626866
F0.0715969027045224
tp26
sI14
(F0.2537313432835821
F0.3712265738974306
tp27
sI15
(F1.2313432835820894
F0.8107395354056788
tp28
ssg9
(dp29
I0
(F1.1915887850467288
F0.9349523934886573
tp30
sI1
(F0.9065420560747662
F0.8832433855469255
tp31
sI2
(F1.7990654205607475
F0.3397174323197768
tp32
sI3
(F0.08878504672897196
F0.1470097845640815
tp33
sI4
(F0.3598130841121495
F0.5600675705322256
tp34
sI5
(F0.8551401869158878
F0.9507481023210923
tp35
sI6
(F1.5981308411214952
F0.6170856917204159
tp36
sI7
(F1.6915887850467288
F0.5053749286999235
tp37
sI8
(F1.5700934579439252
F0.5936553902856385
tp38
sI9
(F0.9299065420560747
F0.9856741696283616
tp39
sI10
(F0.9439252336448597
F0.9545873371067521
tp40
sI11
(F0.29439252336448596
F0.4340529156245883
tp41
sI12
(F0.5420560747663551
F0.7376596024746598
tp42
sI13
(F0.7056074766355139
F0.8753674696151987
tp43
sI14
(F1.3411214953271027
F0.8173621166249843
tp44
sI15
(F1.630841121495327
F0.2903119652494397
tp45
sssb.