ccopy_reg
_reconstructor
p0
(cMethods
NaiveBayes
p1
c__builtin__
object
p2
Ntp3
Rp4
(dp5
S'class_priors'
p6
(dp7
S'Iris-virginica'
p8
F0.3333333333333333
sS'Iris-setosa'
p9
F0.3333333333333333
sS'Iris-versicolor'
p10
F0.3333333333333333
ssS'summaries'
p11
(dp12
g8
(dp13
I0
(F6.5
F0.4092307692307694
tp14
sI1
(F2.9424999999999994
F0.12045512820512813
tp15
sI2
(F5.4975000000000005
F0.3151217948717951
tp16
sI3
(F1.9849999999999999
F0.07412820512820512
tp17
ssg9
(dp18
I0
(F4.9675
F0.1278910256410257
tp19
sI1
(F3.405
F0.13638461538461533
tp20
sI2
(F1.4574999999999996
F0.03122435897435897
tp21
sI3
(F0.23999999999999996
F0.012717948717948714
tp22
ssg10
(dp23
I0
(F5.929999999999999
F0.24420512820512819
tp24
sI1
(F2.745
F0.07843589743589742
tp25
sI2
(F4.245
F0.23997435897435895
tp26
sI3
(F1.3224999999999998
F0.03614743589743588
tp27
sssb.