ccopy_reg
_reconstructor
p0
(cMethods
NaiveBayes
p1
c__builtin__
object
p2
Ntp3
Rp4
(dp5
S'class_priors'
p6
(dp7
S'1'
p8
F0.378698224852071
sS'0'
p9
F0.621301775147929
ssS'summaries'
p10
(dp11
g8
(dp12
I0
(F2.0625
F0.6626984126984127
tp13
sI1
(F2.0
F0.6031746031746031
tp14
sI2
(F1.484375
F0.2537202380952381
tp15
sI3
(F2.1875
F0.6309523809523809
tp16
sI4
(F2.421875
F1.0414186507936507
tp17
sI5
(F1.5625
F0.25
tp18
ssg9
(dp19
I0
(F1.942857142857143
F0.6697802197802204
tp20
sI1
(F1.961904761904762
F0.6523809523809531
tp21
sI2
(F1.523809523809524
F0.25183150183150166
tp22
sI3
(F1.9523809523809526
F0.6996336996336999
tp23
sI4
(F2.504761904761905
F1.3100732600732594
tp24
sI5
(F1.4666666666666668
F0.2512820512820508
tp25
sssb.