ccopy_reg
_reconstructor
p0
(cMethods
NaiveBayes
p1
c__builtin__
object
p2
Ntp3
Rp4
(dp5
S'class_priors'
p6
(dp7
S'1'
p8
F0.4918032786885246
sS'0'
p9
F0.5081967213114754
ssS'summaries'
p10
(dp11
g8
(dp12
I0
(F1.8499999999999999
F0.7059322033898308
tp13
sI1
(F1.6166666666666667
F0.3420903954802261
tp14
sI2
(F1.45
F0.2516949152542375
tp15
sI3
(F2.0166666666666666
F0.7285310734463275
tp16
sI4
(F1.9333333333333333
F0.7073446327683619
tp17
sI5
(F1.5666666666666667
F0.24971751412429355
tp18
ssg9
(dp19
I0
(F1.9193548387096773
F0.6327340031729248
tp20
sI1
(F2.403225806451613
F0.6708090957165522
tp21
sI2
(F1.4838709677419355
F0.25383395029085126
tp22
sI3
(F2.0483870967741935
F0.6697514542570066
tp23
sI4
(F3.0
F1.3114754098360657
tp24
sI5
(F1.467741935483871
F0.2530407191961923
tp25
sssb.