ccopy_reg
_reconstructor
p0
(cMethods
NaiveBayes
p1
c__builtin__
object
p2
Ntp3
Rp4
(dp5
S'class_priors'
p6
(dp7
S'1'
p8
F0.5
sS'0'
p9
F0.5
ssS'summaries'
p10
(dp11
g8
(dp12
I0
(F2.193548387096774
F0.6176626123744049
tp13
sI1
(F2.161290322580645
F0.6292966684294027
tp14
sI2
(F1.435483870967742
F0.24986779481755714
tp15
sI3
(F1.9193548387096773
F0.7638815441565312
tp16
sI4
(F2.064516129032258
F1.372818614489688
tp17
sI5
(F1.532258064516129
F0.2530407191961923
tp18
ssg9
(dp19
I0
(F1.6774193548387095
F0.5827604442094129
tp20
sI1
(F2.032258064516129
F0.6874669487043891
tp21
sI2
(F1.5161290322580645
F0.2538339502908513
tp22
sI3
(F2.096774193548387
F0.6134320465362239
tp23
sI4
(F3.0483870967741935
F0.7025383395029083
tp24
sI5
(F1.564516129032258
F0.24986779481755717
tp25
sssb.